; Function Attrs: mustprogress uwtable
define noundef i32 @_ZN3zmq11ws_engine_t28close_connection_after_closeEPNS_5msg_tE(ptr noundef nonnull align 8 dereferenceable(25696) %this, ptr nocapture readnone %msg_) #0 align 2 {
entry:
  %vtable = load ptr, ptr %this, align 8
  %vfn = getelementptr inbounds i8, ptr %vtable, i64 96
  %0 = load ptr, ptr %vfn, align 8
  tail call void %0(ptr noundef nonnull align 8 dereferenceable(1689) %this, i32 noundef 1)
  %call = tail call ptr @__errno_location() #22
  store i32 104, ptr %call, align 4
  ret i32 -1
}